(dp0
S'nursery'
p1
I963
sS'mansion'
p2
I863
sS'captain'
p3
I238
sS'skeleton'
p4
I1313
sS'paris'
p5
I1013
sS'swan'
p6
I1416
sS'bike'
p7
I124
sS'trousers'
p8
I1509
sS'barley'
p9
I87
sS'blanket'
p10
I134
sS'pigment'
p11
I1065
sS'politician'
p12
I1098
sS'fireplace'
p13
I569
sS'wick'
p14
I1606
sS'chapel'
p15
I279
sS'school'
p16
I1247
sS'parrot'
p17
I1014
sS'shoelace'
p18
I1288
sS'venus'
p19
I1556
sS'clothes'
p20
I326
sS'quilt'
p21
I1150
sS'almond'
p22
I17
sS'bacon'
p23
I66
sS'chef'
p24
I289
sS'street'
p25
I1392
sS'cactus'
p26
I214
sS'quill'
p27
I1149
sS'blouse'
p28
I138
sS'orchestra'
p29
I980
sS'asia'
p30
I45
sS'fossil'
p31
I595
sS'net'
p32
I945
sS'hero'
p33
I705
sS'herb'
p34
I703
sS'dustpan'
p35
I508
sS'herd'
p36
I704
sS'dorm'
p37
I487
sS'path'
p38
I1022
sS'daughter'
p39
I441
sS'luggage'
p40
I846
sS'permit'
p41
I1050
sS'military'
p42
I893
sS'climber'
p43
I322
sS'straw'
p44
I1389
sS'county'
p45
I388
sS'landscape'
p46
I798
sS'army'
p47
I38
sS'alligator'
p48
I15
sS'hospital'
p49
I720
sS'bead'
p50
I102
sS'limousine'
p51
I823
sS'blueberry'
p52
I139
sS'calf'
p53
I221
sS'wart'
p54
I1589
sS'award'
p55
I62
sS'glass'
p56
I638
sS'pecan'
p57
I1035
sS'adult'
p58
I7
sS'scribble'
p59
I1255
sS'bartender'
p60
I91
sS'room'
p61
I1205
sS'unicorn'
p62
I1537
sS'blade'
p63
I133
sS'worm'
p64
I1622
sS'roof'
p65
I1204
sS'mechanic'
p66
I883
sS'appendage'
p67
I31
sS'root'
p68
I1209
sS'boyfriend'
p69
I161
sS'serpent'
p70
I1269
sS'dolphin'
p71
I482
sS'honey'
p72
I712
sS'hoe'
p73
I710
sS'vagrant'
p74
I1543
sS'machine'
p75
I851
sS'gate'
p76
I624
sS'ancestor'
p77
I19
sS'fudge'
p78
I610
sS'pizza'
p79
I1078
sS'briefcase'
p80
I174
sS'ladder'
p81
I792
sS'abdomen'
p82
I0
sS'diagram'
p83
I455
sS'possum'
p84
I1111
sS'president'
p85
I1120
sS'vase'
p86
I1548
sS'tulip'
p87
I1516
sS'jungle'
p88
I763
sS'ambulance'
p89
I18
sS'fan'
p90
I550
sS'wine'
p91
I1612
sS'office'
p92
I971
sS'deck'
p93
I442
sS'muffin'
p94
I928
sS'sickle'
p95
I1301
sS'london'
p96
I842
sS'butcher'
p97
I202
sS'oven'
p98
I990
sS'keyboard'
p99
I773
sS'japan'
p100
I748
sS'windshield'
p101
I1611
sS'crew'
p102
I405
sS'fig'
p103
I562
sS'carton'
p104
I250
sS'fin'
p105
I565
sS'coffee'
p106
I340
sS'tourist'
p107
I1487
sS'plaster'
p108
I1084
sS'roost'
p109
I1207
sS'band'
p110
I77
sS'caterpillar'
p111
I258
sS'giraffe'
p112
I635
sS'bank'
p113
I82
sS'bread'
p114
I169
sS'stereo'
p115
I1377
sS'meat'
p116
I882
sS'arrow'
p117
I39
sS'volcano'
p118
I1574
sS'meal'
p119
I881
sS'bone'
p120
I147
sS'hanger'
p121
I686
sS'telescope'
p122
I1445
sS'spider'
p123
I1350
sS'turnip'
p124
I1520
sS'cathedral'
p125
I259
sS'message'
p126
I887
sS'whip'
p127
I1603
sS'goo'
p128
I647
sS'velvet'
p129
I1554
sS'motel'
p130
I918
sS'medicine'
p131
I885
sS'washer'
p132
I1591
sS'grease'
p133
I659
sS'associate'
p134
I48
sS'fugitive'
p135
I611
sS'acrobat'
p136
I3
sS'publication'
p137
I1135
sS'raisin'
p138
I1162
sS'signature'
p139
I1305
sS'gazelle'
p140
I627
sS'scalpel'
p141
I1242
sS'wasp'
p142
I1592
sS'hoop'
p143
I715
sS'puck'
p144
I1137
sS'lettuce'
p145
I813
sS'scissors'
p146
I1249
sS'navigator'
p147
I937
sS'hood'
p148
I713
sS'basketball'
p149
I95
sS'spinach'
p150
I1351
sS'elevator'
p151
I523
sS'twister'
p152
I1529
sS'toe'
p153
I1472
sS'kiwi'
p154
I780
sS'ceiling'
p155
I264
sS'intestine'
p156
I741
sS'gym'
p157
I673
sS'cereal'
p158
I271
sS'wardrobe'
p159
I1586
sS'stocking'
p160
I1382
sS'preacher'
p161
I1118
sS'tavern'
p162
I1436
sS'coward'
p163
I393
sS'handcuffs'
p164
I684
sS'tree'
p165
I1501
sS'shower'
p166
I1295
sS'friend'
p167
I605
sS'iron'
p168
I743
sS'rag'
p169
I1159
sS'donkey'
p170
I483
sS'mink'
p171
I896
sS'palace'
p172
I1005
sS'rattle'
p173
I1169
sS'ram'
p174
I1164
sS'rat'
p175
I1168
sS'seed'
p176
I1265
sS'mint'
p177
I897
sS'tweezers'
p178
I1525
sS'escalator'
p179
I538
sS'concrete'
p180
I360
sS'chest'
p181
I294
sS'chess'
p182
I293
sS'snob'
p183
I1334
sS'rider'
p184
I1190
sS'mouth'
p185
I925
sS'letter'
p186
I812
sS'coin'
p187
I342
sS'grave'
p188
I657
sS'hut'
p189
I728
sS'professor'
p190
I1130
sS'dog'
p191
I479
sS'freeway'
p192
I602
sS'swamp'
p193
I1415
sS'aunt'
p194
I59
sS'consumer'
p195
I364
sS'bomb'
p196
I146
sS'mitten'
p197
I901
sS'pope'
p198
I1104
sS'stool'
p199
I1385
sS'queen'
p200
I1148
sS'sage'
p201
I1221
sS'radio'
p202
I1156
sS'poison'
p203
I1095
sS'ulcer'
p204
I1532
sS'nephew'
p205
I941
sS'toast'
p206
I1470
sS'sugar'
p207
I1400
sS'celery'
p208
I265
sS'cougar'
p209
I386
sS'bush'
p210
I201
sS'knuckle'
p211
I788
sS'lodge'
p212
I838
sS'folder'
p213
I587
sS'rice'
p214
I1189
sS'plate'
p215
I1085
sS'pocket'
p216
I1092
sS'cushion'
p217
I427
sS'report'
p218
I1183
sS'saturn'
p219
I1235
sS'relish'
p220
I1182
sS'bay'
p221
I101
sS'bag'
p222
I68
sS'microscope'
p223
I890
sS'steam'
p224
I1374
sS'secretary'
p225
I1264
sS'victim'
p226
I1561
sS'nut'
p227
I964
sS'nun'
p228
I961
sS'cattle'
p229
I260
sS'hammer'
p230
I679
sS'gentleman'
p231
I630
sS'continent'
p232
I366
sS'mug'
p233
I929
sS'finger'
p234
I566
sS'pirate'
p235
I1073
sS'warrior'
p236
I1588
sS'termite'
p237
I1450
sS'boss'
p238
I151
sS'toothbrush'
p239
I1481
sS'cousin'
p240
I391
sS'pluto'
p241
I1091
sS'kitchen'
p242
I777
sS'cop'
p243
I375
sS'goddess'
p244
I645
sS'cow'
p245
I392
sS'country'
p246
I387
sS'jelly'
p247
I754
sS'incense'
p248
I734
sS'cob'
p249
I333
sS'cod'
p250
I339
sS'jello'
p251
I753
sS'bran'
p252
I166
sS'typist'
p253
I1531
sS'canyon'
p254
I234
sS'periscope'
p255
I1049
sS'bathroom'
p256
I98
sS'beef'
p257
I112
sS'parsley'
p258
I1015
sS'submarine'
p259
I1397
sS'beer'
p260
I113
sS'trigger'
p261
I1506
sS'beet'
p262
I114
sS'stadium'
p263
I1363
sS'scarecrow'
p264
I1244
sS'idol'
p265
I732
sS'teenager'
p266
I1443
sS'loft'
p267
I839
sS'mushroom'
p268
I933
sS'worker'
p269
I1620
sS'child'
p270
I298
sS'teapot'
p271
I1441
sS'physician'
p272
I1055
sS'tank'
p273
I1431
sS'cracker'
p274
I397
sS'lizard'
p275
I833
sS'dashboard'
p276
I440
sS'anchor'
p277
I20
sS'cylinder'
p278
I431
sS'cane'
p279
I230
sS'sticker'
p280
I1381
sS'brake'
p281
I165
sS'cone'
p282
I362
sS'violin'
p283
I1570
sS'mouse'
p284
I924
sS'toaster'
p285
I1471
sS'wound'
p286
I1623
sS'forehead'
p287
I591
sS'writer'
p288
I1626
sS'belly'
p289
I118
sS'vegetable'
p290
I1551
sS'monarch'
p291
I905
sS'bunny'
p292
I197
sS'wheel'
p293
I1602
sS'moose'
p294
I914
sS'rail'
p295
I1160
sS'clove'
p296
I328
sS'hand'
p297
I682
sS'suburb'
p298
I1398
sS'waterfall'
p299
I1594
sS'garlic'
p300
I623
sS'supper'
p301
I1410
sS'tuna'
p302
I1517
sS'kid'
p303
I774
sS'butter'
p304
I204
sS'neptune'
p305
I942
sS'ocean'
p306
I969
sS'tombstone'
p307
I1477
sS'mother'
p308
I920
sS'plaque'
p309
I1083
sS'photo'
p310
I1054
sS'bruise'
p311
I179
sS'rodent'
p312
I1203
sS'human'
p313
I725
sS'elk'
p314
I525
sS'ham'
p315
I677
sS'candidate'
p316
I227
sS'elm'
p317
I526
sS'cherry'
p318
I292
sS'elf'
p319
I524
sS'hay'
p320
I692
sS'board'
p321
I142
sS'prison'
p322
I1126
sS'hat'
p323
I689
sS'viking'
p324
I1564
sS'boxer'
p325
I159
sS'judge'
p326
I760
sS'cape'
p327
I236
sS'roach'
p328
I1194
sS'shoulder'
p329
I1293
sS'gift'
p330
I634
sS'cooler'
p331
I374
sS'grizzly'
p332
I661
sS'pavement'
p333
I1027
sS'officer'
p334
I972
sS'surf'
p335
I1411
sS'attorney'
p336
I57
sS'creek'
p337
I403
sS'people'
p338
I1045
sS'crown'
p339
I414
sS'sponge'
p340
I1354
sS'captive'
p341
I239
sS'jupiter'
p342
I764
sS'trombone'
p343
I1507
sS'orchid'
p344
I981
sS'fox'
p345
I597
sS'microwave'
p346
I891
sS'foe'
p347
I586
sS'convict'
p348
I370
sS'mosquito'
p349
I916
sS'cord'
p350
I378
sS'corn'
p351
I380
sS'cork'
p352
I379
sS'binder'
p353
I126
sS'yoke'
p354
I1631
sS'bolt'
p355
I145
sS'keeper'
p356
I768
sS'pliers'
p357
I1088
sS'trophy'
p358
I1508
sS'diner'
p359
I466
sS'cowboy'
p360
I394
sS'plum'
p361
I1089
sS'magazine'
p362
I852
sS'banker'
p363
I83
sS'horizon'
p364
I716
sS'octopus'
p365
I970
sS'sweater'
p366
I1418
sS'nerve'
p367
I943
sS'gauze'
p368
I625
sS'puzzle'
p369
I1145
sS'bath'
p370
I97
sS'prisoner'
p371
I1127
sS'chime'
p372
I299
sS'cafeteria'
p373
I216
sS'editor'
p374
I515
sS'wax'
p375
I1596
sS'fork'
p376
I593
sS'head'
p377
I694
sS'plumber'
p378
I1090
sS'uncle'
p379
I1535
sS'diaper'
p380
I458
sS'otter'
p381
I985
sS'detective'
p382
I453
sS'crystal'
p383
I417
sS'sapphire'
p384
I1233
sS'passenger'
p385
I1019
sS'juvenile'
p386
I766
sS'umpire'
p387
I1534
sS'cobbler'
p388
I334
sS'swatter'
p389
I1417
sS'ship'
p390
I1285
sS'check'
p391
I283
sS'floor'
p392
I580
sS'glacier'
p393
I637
sS'oboe'
p394
I968
sS'actor'
p395
I4
sS'shrine'
p396
I1297
sS'warehouse'
p397
I1587
sS'tie'
p398
I1465
sS'picture'
p399
I1060
sS'toad'
p400
I1469
sS'ointment'
p401
I973
sS'football'
p402
I590
sS'barracuda'
p403
I89
sS'chairperson'
p404
I274
sS'bullet'
p405
I193
sS'potato'
p406
I1114
sS'yacht'
p407
I1628
sS'jacket'
p408
I746
sS'gorilla'
p409
I649
sS'almanac'
p410
I16
sS'stethoscope'
p411
I1378
sS'igloo'
p412
I733
sS'gown'
p413
I651
sS'coach'
p414
I330
sS'chain'
p415
I272
sS'rod'
p416
I1202
sS'washcloth'
p417
I1590
sS'silverware'
p418
I1307
sS'crocodile'
p419
I410
sS'manager'
p420
I862
sS'skate'
p421
I1312
sS'ice'
p422
I729
sS'skin'
p423
I1317
sS'chair'
p424
I273
sS'milk'
p425
I894
sS'vet'
p426
I1559
sS'grape'
p427
I653
sS'flask'
p428
I575
sS'father'
p429
I553
sS'crater'
p430
I399
sS'tusk'
p431
I1522
sS'icing'
p432
I731
sS'syringe'
p433
I1423
sS'knapsack'
p434
I782
sS'kitten'
p435
I779
sS'cook'
p436
I371
sS'stapler'
p437
I1371
sS'tricycle'
p438
I1505
sS'brother'
p439
I178
sS'gum'
p440
I671
sS'magnet'
p441
I854
sS'item'
p442
I745
sS'subway'
p443
I1399
sS'team'
p444
I1440
sS'lever'
p445
I814
sS'sidewalk'
p446
I1302
sS'pork'
p447
I1107
sS'meadow'
p448
I880
sS'attic'
p449
I55
sS'fingernail'
p450
I567
sS'rouge'
p451
I1212
sS'sign'
p452
I1304
sS'prairie'
p453
I1117
sS'port'
p454
I1109
sS'uniform'
p455
I1538
sS'suspect'
p456
I1414
sS'badge'
p457
I67
sS'explosion'
p458
I543
sS'dwarf'
p459
I509
sS'guardian'
p460
I667
sS'clerk'
p461
I320
sS'stallion'
p462
I1368
sS'water'
p463
I1593
sS'elbow'
p464
I519
sS'baseball'
p465
I92
sS'teacher'
p466
I1439
sS'box'
p467
I158
sS'boy'
p468
I160
sS'cinnamon'
p469
I309
sS'raccoon'
p470
I1152
sS'pillow'
p471
I1068
sS'radish'
p472
I1157
sS'seashore'
p473
I1262
sS'marker'
p474
I869
sS'hamburger'
p475
I678
sS'market'
p476
I870
sS'transplant'
p477
I1495
sS'wand'
p478
I1585
sS'france'
p479
I600
sS'aspirin'
p480
I46
sS'conductor'
p481
I361
sS'labyrinth'
p482
I790
sS'cashier'
p483
I253
sS'chocolate'
p484
I305
sS'olive'
p485
I974
sS'fly'
p486
I585
sS'car'
p487
I240
sS'cap'
p488
I235
sS'cat'
p489
I256
sS'wallet'
p490
I1582
sS'can'
p491
I224
sS'cab'
p492
I208
sS'pickle'
p493
I1058
sS'coral'
p494
I377
sS'heart'
p495
I696
sS'stream'
p496
I1391
sS'chip'
p497
I302
sS'agent'
p498
I9
sS'drawer'
p499
I492
sS'critic'
p500
I409
sS'anteater'
p501
I25
sS'pond'
p502
I1100
sS'dinner'
p503
I467
sS'freezer'
p504
I603
sS'chemical'
p505
I290
sS'cardinal'
p506
I243
sS'sword'
p507
I1422
sS'cannon'
p508
I231
sS'tile'
p509
I1467
sS'map'
p510
I864
sS'designer'
p511
I450
sS'laundry'
p512
I802
sS'mat'
p513
I876
sS'cocktail'
p514
I337
sS'dove'
p515
I490
sS'man'
p516
I861
sS'neck'
p517
I938
sS'switch'
p518
I1421
sS'truck'
p519
I1511
sS'lagoon'
p520
I794
sS'basket'
p521
I94
sS'colt'
p522
I348
sS'canary'
p523
I226
sS'brain'
p524
I164
sS'nitrogen'
p525
I953
sS'police'
p526
I1097
sS'thumb'
p527
I1461
sS'maid'
p528
I855
sS'window'
p529
I1610
sS'farmer'
p530
I552
sS'apron'
p531
I34
sS'rake'
p532
I1163
sS'lunch'
p533
I848
sS'slacks'
p534
I1322
sS'hall'
p535
I676
sS'wagon'
p536
I1577
sS'opera'
p537
I977
sS'ashtray'
p538
I44
sS'rock'
p539
I1200
sS'quarter'
p540
I1147
sS'turtle'
p541
I1521
sS'receipt'
p542
I1172
sS'sprinkle'
p543
I1358
sS'goose'
p544
I648
sS'zebra'
p545
I1634
sS'beetle'
p546
I115
sS'girl'
p547
I636
sS'sunrise'
p548
I1406
sS'album'
p549
I13
sS'canvas'
p550
I233
sS'container'
p551
I365
sS'space'
p552
I1344
sS'factory'
p553
I547
sS'priest'
p554
I1121
sS'eagle'
p555
I511
sS'monster'
p556
I911
sS'cart'
p557
I249
sS'rebel'
p558
I1171
sS'headband'
p559
I695
sS'marine'
p560
I868
sS'card'
p561
I242
sS'underwear'
p562
I1536
sS'carnival'
p563
I244
sS'waiter'
p564
I1579
sS'swing'
p565
I1420
sS'widow'
p566
I1607
sS'pelican'
p567
I1038
sS'shears'
p568
I1275
sS'crib'
p569
I406
sS'ring'
p570
I1192
sS'engineer'
p571
I535
sS'sheep'
p572
I1277
sS'city'
p573
I313
sS'boulevard'
p574
I155
sS'sheet'
p575
I1278
sS'convent'
p576
I369
sS'frame'
p577
I599
sS'mermaid'
p578
I886
sS'crevice'
p579
I404
sS'inventor'
p580
I742
sS'cologne'
p581
I346
sS'television'
p582
I1446
sS'iceberg'
p583
I730
sS'oats'
p584
I967
sS'siding'
p585
I1303
sS'tractor'
p586
I1492
sS'driveway'
p587
I499
sS'mountain'
p588
I923
sS'angel'
p589
I21
sS'alley'
p590
I14
sS'ant'
p591
I24
sS'comedian'
p592
I351
sS'pastry'
p593
I1021
sS'sap'
p594
I1232
sS'saw'
p595
I1238
sS'calendar'
p596
I220
sS'veteran'
p597
I1560
sS'zoo'
p598
I1636
sS'note'
p599
I957
sS'thermometer'
p600
I1452
sS'pimple'
p601
I1070
sS'butterfly'
p602
I205
sS'printer'
p603
I1125
sS'pail'
p604
I1001
sS'tornado'
p605
I1484
sS'molecule'
p606
I904
sS'thesaurus'
p607
I1453
sS'knee'
p608
I783
sS'lawn'
p609
I804
sS'seafood'
p610
I1259
sS'napkin'
p611
I936
sS'tooth'
p612
I1480
sS'sunset'
p613
I1407
sS'professional'
p614
I1129
sS'salt'
p615
I1228
sS'slope'
p616
I1327
sS'perch'
p617
I1047
sS'cobra'
p618
I335
sS'recipe'
p619
I1174
sS'shoe'
p620
I1287
sS'mister'
p621
I900
sS'ground'
p622
I665
sS'snack'
p623
I1330
sS'witch'
p624
I1616
sS'dice'
p625
I460
sS'treasure'
p626
I1499
sS'gull'
p627
I670
sS'robe'
p628
I1197
sS'fort'
p629
I594
sS'pumpkin'
p630
I1141
sS'hostage'
p631
I721
sS'assistant'
p632
I47
sS'lighter'
p633
I818
sS'hedge'
p634
I698
sS'gem'
p635
I628
sS'artist'
p636
I42
sS'saliva'
p637
I1225
sS'joker'
p638
I758
sS'paper'
p639
I1010
sS'bison'
p640
I130
sS'tent'
p641
I1448
sS'husband'
p642
I727
sS'picnic'
p643
I1059
sS'concert'
p644
I359
sS'seat'
p645
I1263
sS'relative'
p646
I1181
sS'gangster'
p647
I619
sS'college'
p648
I345
sS'seal'
p649
I1261
sS'pebble'
p650
I1034
sS'diver'
p651
I475
sS'ornament'
p652
I984
sS'label'
p653
I789
sS'pump'
p654
I1140
sS'bureau'
p655
I198
sS'skyscraper'
p656
I1321
sS'parent'
p657
I1012
sS'screen'
p658
I1252
sS'supermarket'
p659
I1408
sS'guitar'
p660
I669
sS'article'
p661
I41
sS'tub'
p662
I1513
sS'comb'
p663
I350
sS'postage'
p664
I1112
sS'monk'
p665
I909
sS'contract'
p666
I367
sS'berry'
p667
I121
sS'comet'
p668
I352
sS'pot'
p669
I1113
sS'jeans'
p670
I751
sS'pole'
p671
I1096
sS'twig'
p672
I1526
sS'boat'
p673
I143
sS'turkey'
p674
I1519
sS'toothpaste'
p675
I1482
sS'dictator'
p676
I461
sS'mars'
p677
I872
sS'helicopter'
p678
I700
sS'engine'
p679
I534
sS'tiger'
p680
I1466
sS'ruby'
p681
I1213
sS'robber'
p682
I1196
sS'pilot'
p683
I1069
sS'crumb'
p684
I415
sS'cash'
p685
I251
sS'editorial'
p686
I516
sS'newspaper'
p687
I947
sS'vest'
p688
I1558
sS'canoe'
p689
I232
sS'purse'
p690
I1144
sS'telephone'
p691
I1444
sS'commander'
p692
I353
sS'stewardess'
p693
I1380
sS'beaver'
p694
I108
sS'helmet'
p695
I701
sS'doctor'
p696
I477
sS'bowl'
p697
I157
sS'lava'
p698
I803
sS'pad'
p699
I997
sS'document'
p700
I478
sS'pan'
p701
I1007
sS'nest'
p702
I944
sS'driver'
p703
I498
sS'companion'
p704
I356
sS'director'
p705
I470
sS'fruit'
p706
I609
sS'statue'
p707
I1373
sS'flipper'
p708
I579
sS'ranch'
p709
I1165
sS'roommate'
p710
I1206
sS'veal'
p711
I1550
sS'bottle'
p712
I152
sS'taxi'
p713
I1437
sS'stake'
p714
I1367
sS'money'
p715
I907
sS'slime'
p716
I1326
sS'actress'
p717
I5
sS'mongoose'
p718
I908
sS'rose'
p719
I1211
sS'thimble'
p720
I1457
sS'haystack'
p721
I693
sS'pill'
p722
I1067
sS'ruler'
p723
I1215
sS'mop'
p724
I915
sS'dart'
p725
I439
sS'bandage'
p726
I78
sS'vacuum'
p727
I1542
sS'mob'
p728
I903
sS'railroad'
p729
I1161
sS'lady'
p730
I793
sS'furniture'
p731
I615
sS'clam'
p732
I314
sS'towel'
p733
I1488
sS'stranger'
p734
I1388
sS'bracelet'
p735
I162
sS'twin'
p736
I1527
sS'lightning'
p737
I819
sS'shutter'
p738
I1299
sS'chamber'
p739
I276
sS'audience'
p740
I58
sS'nose'
p741
I956
sS'clay'
p742
I319
sS'friar'
p743
I604
sS'tower'
p744
I1489
sS'sneaker'
p745
I1333
sS'doll'
p746
I480
sS'lobster'
p747
I836
sS'tote'
p748
I1486
sS'cavity'
p749
I263
sS'tube'
p750
I1515
sS'tuba'
p751
I1514
sS'moon'
p752
I913
sS'knife'
p753
I784
sS'wheat'
p754
I1601
sS'sandpaper'
p755
I1230
sS'kleenex'
p756
I781
sS'stone'
p757
I1384
sS'package'
p758
I996
sS'jeep'
p759
I752
sS'island'
p760
I744
sS'shrimp'
p761
I1296
sS'wolf'
p762
I1618
sS'ox'
p763
I993
sS'road'
p764
I1195
sS'heater'
p765
I697
sS'dagger'
p766
I433
sS'earring'
p767
I513
sS'nicotine'
p768
I950
sS'operator'
p769
I978
sS'skillet'
p770
I1316
sS'burglar'
p771
I199
sS'log'
p772
I840
sS'hip'
p773
I709
sS'hen'
p774
I702
sS'valley'
p775
I1544
sS'bubble'
p776
I182
sS'hare'
p777
I687
sS'jug'
p778
I761
sS'buggy'
p779
I187
sS'cabinet'
p780
I211
sS'omelet'
p781
I975
sS'cottage'
p782
I383
sS'spice'
p783
I1349
sS'bucket'
p784
I183
sS'strawberry'
p785
I1390
sS'bouillon'
p786
I153
sS'suitcase'
p787
I1402
sS'grass'
p788
I654
sS'rust'
p789
I1218
sS'toilet'
p790
I1474
sS'ceramics'
p791
I270
sS'lint'
p792
I825
sS'deer'
p793
I443
sS'general'
p794
I629
sS'hound'
p795
I723
sS'film'
p796
I564
sS'cream'
p797
I401
sS'antenna'
p798
I27
sS'personnel'
p799
I1052
sS'graduate'
p800
I652
sS'field'
p801
I561
sS'summit'
p802
I1404
sS'astronaut'
p803
I50
sS'puppy'
p804
I1143
sS'lapel'
p805
I799
sS'shelter'
p806
I1281
sS'pear'
p807
I1032
sS'carpenter'
p808
I245
sS'brandy'
p809
I168
sS'nucleus'
p810
I960
sS'spouse'
p811
I1357
sS'pool'
p812
I1102
sS'building'
p813
I190
sS'sardine'
p814
I1234
sS'wife'
p815
I1608
sS'thorn'
p816
I1458
sS'groom'
p817
I664
sS'mask'
p818
I875
sS'lace'
p819
I791
sS'dollar'
p820
I481
sS'disc'
p821
I472
sS'dish'
p822
I473
sS'carpet'
p823
I246
sS'apartment'
p824
I29
sS'gymnast'
p825
I674
sS'tail'
p826
I1429
sS'woman'
p827
I1619
sS'parcel'
p828
I1011
sS'screwdriver'
p829
I1254
sS'blockade'
p830
I136
sS'scout'
p831
I1251
sS'diary'
p832
I459
sS'ticket'
p833
I1463
sS'cable'
p834
I212
sS'list'
p835
I829
sS'trench'
p836
I1502
sS'dinosaur'
p837
I468
sS'sand'
p838
I1229
sS'saxophone'
p839
I1239
sS'mammal'
p840
I860
sS'fence'
p841
I559
sS'tea'
p842
I1438
sS'grasshopper'
p843
I655
sS'lawyer'
p844
I805
sS'hamper'
p845
I681
sS'ribbon'
p846
I1188
sS'dial'
p847
I456
sS'clock'
p848
I324
sS'sun'
p849
I1405
sS'protractor'
p850
I1132
sS'nurse'
p851
I962
sS'mule'
p852
I930
sS'pub'
p853
I1134
sS'arena'
p854
I36
sS'publisher'
p855
I1136
sS'bible'
p856
I123
sS'tortoise'
p857
I1485
sS'soldier'
p858
I1343
sS'airport'
p859
I12
sS'pick'
p860
I1057
sS'family'
p861
I549
sS'caravan'
p862
I241
sS'africa'
p863
I8
sS'follower'
p864
I588
sS'passage'
p865
I1018
sS'casket'
p866
I254
sS'eye'
p867
I544
sS'lollipop'
p868
I841
sS'pearl'
p869
I1033
sS'fragrance'
p870
I598
sS'raft'
p871
I1158
sS'diamond'
p872
I457
sS'door'
p873
I485
sS'caboose'
p874
I213
sS'dishwasher'
p875
I474
sS'chimpanzee'
p876
I301
sS'flag'
p877
I572
sS'nomad'
p878
I954
sS'coyote'
p879
I395
sS'town'
p880
I1490
sS'grill'
p881
I660
sS'primate'
p882
I1122
sS'chisel'
p883
I304
sS'tapioca'
p884
I1433
sS'mall'
p885
I859
sS'seagull'
p886
I1260
sS'marble'
p887
I866
sS'shark'
p888
I1274
sS'pony'
p889
I1101
sS'gallon'
p890
I617
sS'airplane'
p891
I11
sS'dress'
p892
I494
sS'string'
p893
I1393
sS'freckle'
p894
I601
sS'siren'
p895
I1309
sS'court'
p896
I390
sS'weed'
p897
I1598
sS'goat'
p898
I643
sS'creature'
p899
I402
sS'plant'
p900
I1082
sS'sandwich'
p901
I1231
sS'soda'
p902
I1340
sS'fungus'
p903
I613
sS'plane'
p904
I1080
sS'softball'
p905
I1342
sS'coat'
p906
I332
sS'register'
p907
I1179
sS'spoon'
p908
I1356
sS'volleyball'
p909
I1575
sS'dragon'
p910
I491
sS'coal'
p911
I331
sS'shore'
p912
I1290
sS'wrench'
p913
I1624
sS'egg'
p914
I517
sS'patio'
p915
I1024
sS'infant'
p916
I736
sS'scientist'
p917
I1248
sS'dough'
p918
I488
sS'committee'
p919
I354
sS'clarinet'
p920
I316
sS'mattress'
p921
I878
sS'resort'
p922
I1185
sS'macaroni'
p923
I850
sS'predator'
p924
I1119
sS'clippers'
p925
I323
sS'foot'
p926
I589
sS'shop'
p927
I1289
sS'hook'
p928
I714
sS'spy'
p929
I1359
sS'fairy'
p930
I548
sS'clamp'
p931
I315
sS'brunette'
p932
I180
sS'eyelash'
p933
I545
sS'house'
p934
I724
sS'fish'
p935
I570
sS'gun'
p936
I672
sS'fist'
p937
I571
sS'harp'
p938
I688
sS'flower'
p939
I583
sS'lipstick'
p940
I828
sS'pigeon'
p941
I1064
sS'fountain'
p942
I596
sS'cyclone'
p943
I430
sS'highway'
p944
I706
sS'bully'
p945
I195
sS'dirt'
p946
I471
sS'dune'
p947
I505
sS'toy'
p948
I1491
sS'cookie'
p949
I373
sS'acorn'
p950
I2
sS'ash'
p951
I43
sS'faucet'
p952
I554
sS'thread'
p953
I1459
sS'daisy'
p954
I434
sS'castle'
p955
I255
sS'porpoise'
p956
I1108
sS'major'
p957
I858
sS'sailor'
p958
I1222
sS'maple'
p959
I865
sS'razor'
p960
I1170
sS'horse'
p961
I718
sS'guest'
p962
I668
sS'jet'
p963
I755
sS'blossom'
p964
I137
sS'automobile'
p965
I61
sS'lobby'
p966
I835
sS'paint'
p967
I1002
sS'moat'
p968
I902
sS'syrup'
p969
I1424
sS'banana'
p970
I76
sS'store'
p971
I1386
sS'needle'
p972
I940
sS'dentist'
p973
I446
sS'rifle'
p974
I1191
sS'stairs'
p975
I1366
sS'king'
p976
I776
sS'grocery'
p977
I663
sS'bluejay'
p978
I140
sS'youth'
p979
I1633
sS'bride'
p980
I172
sS'architect'
p981
I35
sS'outdoors'
p982
I986
sS'sty'
p983
I1396
sS'bassinet'
p984
I96
sS'coleslaw'
p985
I343
sS'chipmunk'
p986
I303
sS'pedestrian'
p987
I1037
sS'lid'
p988
I816
sS'ballerina'
p989
I73
sS'cave'
p990
I262
sS'couch'
p991
I385
sS'lip'
p992
I827
sS'donor'
p993
I484
sS'banjo'
p994
I81
sS'tool'
p995
I1479
sS'zucchini'
p996
I1637
sS'blackboard'
p997
I132
sS'flute'
p998
I584
sS'salmon'
p999
I1226
sS'chart'
p1000
I281
sS'cigarette'
p1001
I308
sS'virus'
p1002
I1571
sS'moss'
p1003
I917
sS'oyster'
p1004
I994
sS'nail'
p1005
I935
sS'barrel'
p1006
I90
sS'bulletin'
p1007
I194
sS'gold'
p1008
I646
sS'sparrow'
p1009
I1346
sS'crayon'
p1010
I400
sS'blender'
p1011
I135
sS'delinquent'
p1012
I444
sS'camel'
p1013
I222
sS'porcupine'
p1014
I1106
sS'shepherd'
p1015
I1282
sS'triangle'
p1016
I1503
sS'dandelion'
p1017
I437
sS'attire'
p1018
I56
sS'whistle'
p1019
I1605
sS'breast'
p1020
I170
sS'compass'
p1021
I357
sS'silk'
p1022
I1306
sS'banner'
p1023
I84
sS'banquet'
p1024
I85
sS'chimney'
p1025
I300
sS'enemy'
p1026
I533
sS'catcher'
p1027
I257
sS'sleeve'
p1028
I1323
sS'perfume'
p1029
I1048
sS'river'
p1030
I1193
sS'cheese'
p1031
I288
sS'outlaw'
p1032
I988
sS'scenery'
p1033
I1246
sS'stump'
p1034
I1395
sS'dump'
p1035
I504
sS'vine'
p1036
I1567
sS'lion'
p1037
I826
sS'sea'
p1038
I1258
sS'portrait'
p1039
I1110
sS'bark'
p1040
I86
sS'arm'
p1041
I37
sS'barn'
p1042
I88
sS'expert'
p1043
I542
sS'movie'
p1044
I926
sS'cuff'
p1045
I422
sS'champagne'
p1046
I277
sS'funeral'
p1047
I612
sS'europe'
p1048
I540
sS'mildew'
p1049
I892
sS'mailbox'
p1050
I856
sS'aircraft'
p1051
I10
sS'zipper'
p1052
I1635
sS'restaurant'
p1053
I1186
sS'bandit'
p1054
I80
sS'lash'
p1055
I801
sS'vault'
p1056
I1549
sS'shortcake'
p1057
I1291
sS'loaf'
p1058
I834
sS'electrician'
p1059
I520
sS'pendulum'
p1060
I1042
sS'bridge'
p1061
I173
sS'battery'
p1062
I100
sS'proton'
p1063
I1131
sS'scallop'
p1064
I1241
sS'dancer'
p1065
I436
sS'church'
p1066
I306
sS'vessel'
p1067
I1557
sS'bench'
p1068
I120
sS'belt'
p1069
I119
sS'handkerchief'
p1070
I685
sS'pocketbook'
p1071
I1093
sS'stamp'
p1072
I1369
sS'runner'
p1073
I1217
sS'brick'
p1074
I171
sS'territory'
p1075
I1451
sS'referee'
p1076
I1177
sS'squirrel'
p1077
I1361
sS'liver'
p1078
I832
sS'instructor'
p1079
I740
sS'fur'
p1080
I614
sS'hostess'
p1081
I722
sS'bill'
p1082
I125
sS'governor'
p1083
I650
sS'pitchfork'
p1084
I1077
sS'rope'
p1085
I1210
sS'fleet'
p1086
I577
sS'robin'
p1087
I1198
sS'loop'
p1088
I843
sS'moth'
p1089
I919
sS'calculator'
p1090
I219
sS'quail'
p1091
I1146
sS'rib'
p1092
I1187
sS'chauffeur'
p1093
I282
sS'shirt'
p1094
I1286
sS'ewe'
p1095
I541
sS'viola'
p1096
I1569
sS'neutron'
p1097
I946
sS'literature'
p1098
I830
sS'snail'
p1099
I1331
sS'dime'
p1100
I465
sS'cigar'
p1101
I307
sS'leopard'
p1102
I811
sS'cucumber'
p1103
I420
sS'cheek'
p1104
I286
sS'person'
p1105
I1051
sS'cheddar'
p1106
I285
sS'world'
p1107
I1621
sS'margarine'
p1108
I867
sS'prince'
p1109
I1123
sS'timber'
p1110
I1468
sS'tablet'
p1111
I1426
sS'cup'
p1112
I423
sS'cemetery'
p1113
I268
sS'contractor'
p1114
I368
sS'cue'
p1115
I421
sS'cub'
p1116
I418
sS'tuxedo'
p1117
I1524
sS'niece'
p1118
I951
sS'radiator'
p1119
I1155
sS'doorbell'
p1120
I486
sS'wings'
p1121
I1613
sS'flannel'
p1122
I573
sS'spine'
p1123
I1352
sS'glove'
p1124
I641
sS'sleigh'
p1125
I1324
sS'walrus'
p1126
I1584
sS'sketch'
p1127
I1314
sS'senate'
p1128
I1266
sS'duck'
p1129
I503
sS'back'
p1130
I64
sS'yolk'
p1131
I1632
sS'oval'
p1132
I989
sS'litter'
p1133
I831
sS'palm'
p1134
I1006
sS'clown'
p1135
I329
sS'mirror'
p1136
I898
sS'candle'
p1137
I228
sS'server'
p1138
I1271
sS'saucer'
p1139
I1236
sS'scale'
p1140
I1240
sS'garage'
p1141
I620
sS'mummy'
p1142
I931
sS'pelt'
p1143
I1039
sS'pen'
p1144
I1040
sS'monastery'
p1145
I906
sS'lime'
p1146
I822
sS'temple'
p1147
I1447
sS'blackberry'
p1148
I131
sS'patient'
p1149
I1023
sS'rum'
p1150
I1216
sS'rug'
p1151
I1214
sS'stem'
p1152
I1375
sS'step'
p1153
I1376
sS'stew'
p1154
I1379
sS'claw'
p1155
I318
sS'raspberry'
p1156
I1167
sS'hatchet'
p1157
I690
sS'plaza'
p1158
I1087
sS'oatmeal'
p1159
I966
sS'hinge'
p1160
I708
sS'garbage'
p1161
I621
sS'gavel'
p1162
I626
sS'canal'
p1163
I225
sS'sock'
p1164
I1338
sS'asteroid'
p1165
I49
sS'refrigerator'
p1166
I1178
sS'suit'
p1167
I1401
sS'blueprint'
p1168
I141
sS'frost'
p1169
I608
sS'library'
p1170
I815
sS'reef'
p1171
I1176
sS'atom'
p1172
I54
sS'penguin'
p1173
I1043
sS'patriot'
p1174
I1025
sS'skull'
p1175
I1319
sS'fries'
p1176
I606
sS'planet'
p1177
I1081
sS'hornet'
p1178
I717
sS'dill'
p1179
I464
sS'supervisor'
p1180
I1409
sS'pencil'
p1181
I1041
sS'curb'
p1182
I425
sS'cafe'
p1183
I215
sS'kidney'
p1184
I775
sS'cotton'
p1185
I384
sS'lemon'
p1186
I809
sS'peach'
p1187
I1030
sS'application'
p1188
I33
sS'department'
p1189
I448
sS'mayonnaise'
p1190
I879
sS'tart'
p1191
I1435
sS'padding'
p1192
I998
sS'scapegoat'
p1193
I1243
sS'cellar'
p1194
I266
sS'mustard'
p1195
I934
sS'twine'
p1196
I1528
sS'envelope'
p1197
I536
sS'backbone'
p1198
I65
sS'lens'
p1199
I810
sS'insect'
p1200
I739
sS'saloon'
p1201
I1227
sS'pottery'
p1202
I1115
sS'fighter'
p1203
I563
sS'scotch'
p1204
I1250
sS'beverage'
p1205
I122
sS'buffalo'
p1206
I185
sS'scroll'
p1207
I1256
sS'essay'
p1208
I539
sS'paw'
p1209
I1028
sS'miner'
p1210
I895
sS'groceries'
p1211
I662
sS'gang'
p1212
I618
sS'bait'
p1213
I69
sS'peanut'
p1214
I1031
sS'mower'
p1215
I927
sS'shack'
p1216
I1272
sS'stable'
p1217
I1362
sS'atlas'
p1218
I52
sS'suite'
p1219
I1403
sS'gravel'
p1220
I658
sS'garden'
p1221
I622
sS'toenail'
p1222
I1473
sS'dessert'
p1223
I452
sS'wave'
p1224
I1595
sS'spool'
p1225
I1355
sS'electron'
p1226
I521
sS'artery'
p1227
I40
sS'surgeon'
p1228
I1412
sS'tutu'
p1229
I1523
sS'knight'
p1230
I785
sS'button'
p1231
I206
sS'rack'
p1232
I1153
sS'crow'
p1233
I413
sS'crook'
p1234
I411
sS'video'
p1235
I1563
sS'booth'
p1236
I150
sS'earth'
p1237
I514
sS'acid'
p1238
I1
sS'spaghetti'
p1239
I1345
sS'victor'
p1240
I1562
sS'waitress'
p1241
I1580
sS'sausage'
p1242
I1237
sS'checkers'
p1243
I284
sS'colonel'
p1244
I347
sS'vampire'
p1245
I1546
sS'paddle'
p1246
I999
sS'indian'
p1247
I735
sS'capital'
p1248
I237
sS'bird'
p1249
I128
sS'body'
p1250
I144
sS'leg'
p1251
I808
sS'kangaroo'
p1252
I767
sS'sink'
p1253
I1308
sS'vinegar'
p1254
I1568
sS'survey'
p1255
I1413
sS'popcorn'
p1256
I1103
sS'shovel'
p1257
I1294
sS'apple'
p1258
I32
sS'deputy'
p1259
I449
sS'egypt'
p1260
I518
sS'motor'
p1261
I921
sS'cheerleader'
p1262
I287
sS'limb'
p1263
I821
sS'staple'
p1264
I1370
sS'cloud'
p1265
I327
sS'ape'
p1266
I30
sS'tar'
p1267
I1434
sS'frog'
p1268
I607
sS'germ'
p1269
I631
sS'camera'
p1270
I223
sS'crab'
p1271
I396
sS'vehicle'
p1272
I1552
sS'butler'
p1273
I203
sS'charcoal'
p1274
I280
sS'porch'
p1275
I1105
sS'tangerine'
p1276
I1430
sS'missile'
p1277
I899
sS'train'
p1278
I1493
sS'rabbit'
p1279
I1151
sS'baby'
p1280
I63
sS'customer'
p1281
I429
sS'salad'
p1282
I1223
sS'tunnel'
p1283
I1518
sS'athlete'
p1284
I51
sS'lumber'
p1285
I847
sS'drill'
p1286
I496
sS'coffin'
p1287
I341
sS'boulder'
p1288
I154
sS'patrol'
p1289
I1026
sS'pawn'
p1290
I1029
sS'lock'
p1291
I837
sS'villain'
p1292
I1566
sS'carrot'
p1293
I248
sS'skirt'
p1294
I1318
sS'lamb'
p1295
I796
sS'trumpet'
p1296
I1512
sS'lamp'
p1297
I797
sS'crutch'
p1298
I416
sS'forest'
p1299
I592
sS'animal'
p1300
I22
sS'typewriter'
p1301
I1530
sS'cupboard'
p1302
I424
sS'farm'
p1303
I551
sS'notebook'
p1304
I958
sS'wrist'
p1305
I1625
sS'cabbage'
p1306
I209
sS'hawk'
p1307
I691
sS'tongue'
p1308
I1478
sS'tomato'
p1309
I1475
sS'robot'
p1310
I1199
sS'linen'
p1311
I824
sS'chief'
p1312
I297
sS'encyclopedia'
p1313
I532
sS'necklace'
p1314
I939
sS'antelope'
p1315
I26
sS'thigh'
p1316
I1456
sS'producer'
p1317
I1128
sS'tribe'
p1318
I1504
sS'basement'
p1319
I93
sS'bugle'
p1320
I188
sS'spatula'
p1321
I1347
sS'costume'
p1322
I382
sS'galaxy'
p1323
I616
sS'lounge'
p1324
I844
sS'broom'
p1325
I177
sS'brook'
p1326
I176
sS'walnut'
p1327
I1583
sS'marsh'
p1328
I873
sS'orange'
p1329
I979
sS'criminal'
p1330
I408
sS'dad'
p1331
I432
sS'citrus'
p1332
I312
sS'dam'
p1333
I435
sS'elephant'
p1334
I522
sS'dock'
p1335
I476
sS'snorkel'
p1336
I1335
sS'snake'
p1337
I1332
sS'emerald'
p1338
I527
sS'flea'
p1339
I576
sS'cage'
p1340
I217
sS'university'
p1341
I1540
sS'feast'
p1342
I555
sS'slide'
p1343
I1325
sS'fiddle'
p1344
I560
sS'cocoon'
p1345
I338
sS'tray'
p1346
I1497
sS'glasses'
p1347
I639
sS'globe'
p1348
I640
sS'society'
p1349
I1337
sS'salesman'
p1350
I1224
sS'witness'
p1351
I1617
sS'valve'
p1352
I1545
sS'playground'
p1353
I1086
sS'smog'
p1354
I1329
sS'umbrella'
p1355
I1533
sS'dictionary'
p1356
I462
sS'utensil'
p1357
I1541
sS'princess'
p1358
I1124
sS'yard'
p1359
I1629
sS'florida'
p1360
I581
sS'yarn'
p1361
I1630
sS'tack'
p1362
I1427
sS'pudding'
p1363
I1138
sS'buckle'
p1364
I184
sS'scarf'
p1365
I1245
sS'bouquet'
p1366
I156
sS'sack'
p1367
I1219
sS'cobweb'
p1368
I336
sS'owner'
p1369
I992
sS'marrow'
p1370
I871
sS'braces'
p1371
I163
sS'monkey'
p1372
I910
sS'inmate'
p1373
I737
sS'sergeant'
p1374
I1268
sS'ankle'
p1375
I23
sS'cabin'
p1376
I210
sS'beard'
p1377
I106
sS'shell'
p1378
I1280
sS'stomach'
p1379
I1383
sS'shorts'
p1380
I1292
sS'shelf'
p1381
I1279
sS'goblin'
p1382
I644
sS'waist'
p1383
I1578
sS'prune'
p1384
I1133
sS'shampoo'
p1385
I1273
sS'bed'
p1386
I109
sS'bee'
p1387
I111
sS'lover'
p1388
I845
sS'sculpture'
p1389
I1257
sS'beggar'
p1390
I116
sS'deodorant'
p1391
I447
sS'tide'
p1392
I1464
sS'receptionist'
p1393
I1173
sS'screw'
p1394
I1253
sS'microphone'
p1395
I889
sS'lily'
p1396
I820
sS'soap'
p1397
I1336
sS'handbag'
p1398
I683
sS'medal'
p1399
I884
sS'class'
p1400
I317
sS'polyester'
p1401
I1099
sS'face'
p1402
I546
sS'pipe'
p1403
I1072
sS'skunk'
p1404
I1320
sS'painting'
p1405
I1004
sS'atmosphere'
p1406
I53
sS'kite'
p1407
I778
sS'stove'
p1408
I1387
sS'technician'
p1409
I1442
sS'traitor'
p1410
I1494
sS'bedroom'
p1411
I110
sS'chicken'
p1412
I296
sS'thicket'
p1413
I1454
sS'staff'
p1414
I1364
sS'dandruff'
p1415
I438
sS'sheriff'
p1416
I1283
sS'jaw'
p1417
I750
sS'winner'
p1418
I1614
sS'jar'
p1419
I749
sS'rash'
p1420
I1166
sS'employer'
p1421
I531
sS'terminal'
p1422
I1449
sS'jam'
p1423
I747
sS'tape'
p1424
I1432
sS'employee'
p1425
I530
sS'piano'
p1426
I1056
sS'cube'
p1427
I419
sS'bear'
p1428
I105
sS'joint'
p1429
I757
sS'bean'
p1430
I104
sS'buyer'
p1431
I207
sS'ghetto'
p1432
I632
sS'organ'
p1433
I983
sS'course'
p1434
I389
sS'mascara'
p1435
I874
sS'motorcycle'
p1436
I922
sS'puddle'
p1437
I1139
sS'computer'
p1438
I358
sS'powder'
p1439
I1116
sS'racket'
p1440
I1154
sS'senator'
p1441
I1267
sS'dungeon'
p1442
I506
sS'wire'
p1443
I1615
sS'closet'
p1444
I325
sS'hammock'
p1445
I680
sS'piston'
p1446
I1075
sS'antler'
p1447
I28
sS'pistol'
p1448
I1074
sS'pants'
p1449
I1009
sS'cauliflower'
p1450
I261
sS'keg'
p1451
I769
sS'vitamin'
p1452
I1573
sS'key'
p1453
I772
sS'broccoli'
p1454
I175
sS'outfit'
p1455
I987
sS'drum'
p1456
I501
sS'shingle'
p1457
I1284
sS'drug'
p1458
I500
sS'vent'
p1459
I1555
sS'author'
p1460
I60
sS'wall'
p1461
I1581
sS'denim'
p1462
I445
sS'oregano'
p1463
I982
sS'table'
p1464
I1425
sS'mailman'
p1465
I857
sS'tread'
p1466
I1498
sS'swimmer'
p1467
I1419
sS'copier'
p1468
I376
sS'cent'
p1469
I269
sS'reindeer'
p1470
I1180
sS'treat'
p1471
I1500
sS'eraser'
p1472
I537
sS'poet'
p1473
I1094
sS'curtain'
p1474
I426
sS'feather'
p1475
I556
sS'juggler'
p1476
I762
sS'circus'
p1477
I310
sS'nickel'
p1478
I949
sS'bull'
p1479
I192
sS'bulb'
p1480
I191
sS'fellow'
p1481
I557
sS'digger'
p1482
I463
sS'painter'
p1483
I1003
sS'volunteer'
p1484
I1576
sS'novel'
p1485
I959
sS'laser'
p1486
I800
sS'chalk'
p1487
I275
sS'bathtub'
p1488
I99
sS'squid'
p1489
I1360
sS'rooster'
p1490
I1208
sS'partner'
p1491
I1016
sS'balloon'
p1492
I74
sS'cross'
p1493
I412
sS'flour'
p1494
I582
sS'party'
p1495
I1017
sS'balcony'
p1496
I71
sS'ball'
p1497
I72
sS'fireman'
p1498
I568
sS'drink'
p1499
I497
sS'diploma'
p1500
I469
sS'beast'
p1501
I107
sS'student'
p1502
I1394
sS'dust'
p1503
I507
sS'pedal'
p1504
I1036
sS'whale'
p1505
I1600
sS'magician'
p1506
I853
sS'collar'
p1507
I344
sS'builder'
p1508
I189
sS'well'
p1509
I1599
sS'drawing'
p1510
I493
sS'bandanna'
p1511
I79
sS'rocket'
p1512
I1201
sS'flesh'
p1513
I578
sS'biologist'
p1514
I127
sS'glue'
p1515
I642
sS'flashlight'
p1516
I574
sS'web'
p1517
I1597
sS'console'
p1518
I363
sS'panther'
p1519
I1008
sS'bell'
p1520
I117
sS'lake'
p1521
I795
sS'ketchup'
p1522
I770
sS'citizen'
p1523
I311
sS'ski'
p1524
I1315
sS'throne'
p1525
I1460
sS'match'
p1526
I877
sS'knob'
p1527
I786
sS'branch'
p1528
I167
sS'newsstand'
p1529
I948
sS'dryer'
p1530
I502
sS'community'
p1531
I355
sS'knot'
p1532
I787
sS'desk'
p1533
I451
sS'doughnut'
p1534
I489
sS'tick'
p1535
I1462
sS'pier'
p1536
I1062
sS'trash'
p1537
I1496
sS'onion'
p1538
I976
sS'sofa'
p1539
I1341
sS'candy'
p1540
I229
sS'ozone'
p1541
I995
sS'servant'
p1542
I1270
sS'chick'
p1543
I295
sS'page'
p1544
I1000
sS'heel'
p1545
I699
sS'shed'
p1546
I1276
sS'village'
p1547
I1565
sS'thief'
p1548
I1455
sS'hail'
p1549
I675
sS'home'
p1550
I711
sS'empire'
p1551
I529
sS'ballot'
p1552
I75
sS'leaf'
p1553
I807
sS'shrub'
p1554
I1298
sS'kettle'
p1555
I771
sS'hurricane'
p1556
I726
sS'philosopher'
p1557
I1053
sS'detergent'
p1558
I454
sS'cradle'
p1559
I398
sS'noose'
p1560
I955
sS'leader'
p1561
I806
sS'trout'
p1562
I1510
sS'pepper'
p1563
I1046
sS'hose'
p1564
I719
sS'whiskers'
p1565
I1604
sS'journal'
p1566
I759
sS'lieutenant'
p1567
I817
sS'pasta'
p1568
I1020
sS'slug'
p1569
I1328
sS'stage'
p1570
I1365
sS'beaker'
p1571
I103
sS'pike'
p1572
I1066
sS'sister'
p1573
I1311
sS'socket'
p1574
I1339
sS'saddle'
p1575
I1220
sS'column'
p1576
I349
sS'universe'
p1577
I1539
sS'biscuit'
p1578
I129
sS'tomb'
p1579
I1476
sS'emperor'
p1580
I528
sS'owl'
p1581
I991
sS'reptile'
p1582
I1184
sS'wilderness'
p1583
I1609
sS'tag'
p1584
I1428
sS'guard'
p1585
I666
sS'lung'
p1586
I849
sS'brush'
p1587
I181
sS'female'
p1588
I558
sS'custard'
p1589
I428
sS'van'
p1590
I1547
sS'adolescent'
p1591
I6
sS'museum'
p1592
I932
sS'visitor'
p1593
I1572
sS'dynamite'
p1594
I510
sS'cricket'
p1595
I407
sS'torch'
p1596
I1483
sS'jury'
p1597
I765
sS'bus'
p1598
I200
sS'xerox'
p1599
I1627
sS'bun'
p1600
I196
sS'grate'
p1601
I656
sS'ear'
p1602
I512
sS'bug'
p1603
I186
sS'nightgown'
p1604
I952
sS'record'
p1605
I1175
sS'carriage'
p1606
I247
sS'plaid'
p1607
I1079
sS'cello'
p1608
I267
sS'monument'
p1609
I912
sS'cake'
p1610
I218
sS'pin'
p1611
I1071
sS'sirloin'
p1612
I1310
sS'penny'
p1613
I1044
sS'pie'
p1614
I1061
sS'pig'
p1615
I1063
sS'sibling'
p1616
I1300
sS'inn'
p1617
I738
sS'pit'
p1618
I1076
sS'champion'
p1619
I278
sS'spit'
p1620
I1353
sS'corporation'
p1621
I381
sS'cashew'
p1622
I252
sS'boot'
p1623
I149
sS'book'
p1624
I148
sS'oar'
p1625
I965
sS'meteor'
p1626
I888
sS'chemist'
p1627
I291
sS'dresser'
p1628
I495
sS'star'
p1629
I1372
sS'vein'
p1630
I1553
sS'cliff'
p1631
I321
sS'ghost'
p1632
I633
sS'sphinx'
p1633
I1348
sS'baker'
p1634
I70
sS'jewel'
p1635
I756
sS'hiker'
p1636
I707
sS'pupil'
p1637
I1142
sS'cookbook'
p1638
I372
s.